target datalayout = "e-m:e-p270:32:32-p271:32:32-p272:64:64-i64:64-i128:128-f80:128-n8:16:32:64-S128"
target triple = "x86_64-pc-linux-gnu"

%struct.__va_list_tag = type { i32, i32, ptr, ptr }

@.str.3 = private unnamed_addr constant [6 x i8] c"guc.c\00", align 1
@.str.139 = private unnamed_addr constant [40 x i8] c"not enough space to serialize GUC state\00", align 1
@__func__.do_serialize = private unnamed_addr constant [13 x i8] c"do_serialize\00", align 1
@.str.140 = private unnamed_addr constant [45 x i8] c"vsnprintf failed: %m with format string \22%s\22\00", align 1

; Function Attrs: nounwind uwtable
define internal void @do_serialize(ptr noundef %0, ptr noundef %1, ptr noundef %2, ...) #0 {
  %4 = alloca ptr, align 8
  %5 = alloca ptr, align 8
  %6 = alloca ptr, align 8
  %7 = alloca [1 x %struct.__va_list_tag], align 16
  %8 = alloca i32, align 4
  store ptr %0, ptr %4, align 8
  store ptr %1, ptr %5, align 8
  store ptr %2, ptr %6, align 8
  call void @llvm.lifetime.start.p0(i64 24, ptr %7) #16
  call void @llvm.lifetime.start.p0(i64 4, ptr %8) #16
  %9 = load ptr, ptr %5, align 8
  %10 = load i64, ptr %9, align 8
  %11 = icmp ule i64 %10, 0
  br i1 %11, label %12, label %23

12:                                               ; preds = %3
  br label %13

13:                                               ; preds = %12
  br i1 true, label %14, label %16

14:                                               ; preds = %13
  %15 = call zeroext i1 @errstart_cold(i32 noundef 21, ptr noundef null) #18
  br i1 %15, label %18, label %20

16:                                               ; preds = %13
  %17 = call zeroext i1 @errstart(i32 noundef 21, ptr noundef null)
  br i1 %17, label %18, label %20

18:                                               ; preds = %16, %14
  %19 = call i32 (ptr, ...) @errmsg_internal(ptr noundef @.str.139)
  call void @errfinish(ptr noundef @.str.3, i32 noundef 5985, ptr noundef @__func__.do_serialize)
  br label %20

20:                                               ; preds = %18, %16, %14
  unreachable

21:                                               ; No predecessors!
  br label %22

22:                                               ; preds = %21
  br label %23

23:                                               ; preds = %22, %3
  %24 = getelementptr inbounds [1 x %struct.__va_list_tag], ptr %7, i64 0, i64 0
  call void @llvm.va_start.p0(ptr %24)
  %25 = load ptr, ptr %4, align 8
  %26 = load ptr, ptr %25, align 8
  %27 = load ptr, ptr %5, align 8
  %28 = load i64, ptr %27, align 8
  %29 = load ptr, ptr %6, align 8
  %30 = getelementptr inbounds [1 x %struct.__va_list_tag], ptr %7, i64 0, i64 0
  %31 = call i32 @pg_vsnprintf(ptr noundef %26, i64 noundef %28, ptr noundef %29, ptr noundef %30)
  store i32 %31, ptr %8, align 4
  %32 = getelementptr inbounds [1 x %struct.__va_list_tag], ptr %7, i64 0, i64 0
  call void @llvm.va_end.p0(ptr %32)
  %33 = load i32, ptr %8, align 4
  %34 = icmp slt i32 %33, 0
  br i1 %34, label %35, label %47

35:                                               ; preds = %23
  br label %36

36:                                               ; preds = %35
  br i1 true, label %37, label %39

37:                                               ; preds = %36
  %38 = call zeroext i1 @errstart_cold(i32 noundef 21, ptr noundef null) #18
  br i1 %38, label %41, label %44

39:                                               ; preds = %36
  %40 = call zeroext i1 @errstart(i32 noundef 21, ptr noundef null)
  br i1 %40, label %41, label %44

41:                                               ; preds = %39, %37
  %42 = load ptr, ptr %6, align 8
  %43 = call i32 (ptr, ...) @errmsg_internal(ptr noundef @.str.140, ptr noundef %42)
  call void @errfinish(ptr noundef @.str.3, i32 noundef 5994, ptr noundef @__func__.do_serialize)
  br label %44

44:                                               ; preds = %41, %39, %37
  unreachable

45:                                               ; No predecessors!
  br label %46

46:                                               ; preds = %45
  br label %47

47:                                               ; preds = %46, %23
  %48 = load i32, ptr %8, align 4
  %49 = sext i32 %48 to i64
  %50 = load ptr, ptr %5, align 8
  %51 = load i64, ptr %50, align 8
  %52 = icmp uge i64 %49, %51
  br i1 %52, label %53, label %64

53:                                               ; preds = %47
  br label %54

54:                                               ; preds = %53
  br i1 true, label %55, label %57

55:                                               ; preds = %54
  %56 = call zeroext i1 @errstart_cold(i32 noundef 21, ptr noundef null) #18
  br i1 %56, label %59, label %61

57:                                               ; preds = %54
  %58 = call zeroext i1 @errstart(i32 noundef 21, ptr noundef null)
  br i1 %58, label %59, label %61

59:                                               ; preds = %57, %55
  %60 = call i32 (ptr, ...) @errmsg_internal(ptr noundef @.str.139)
  call void @errfinish(ptr noundef @.str.3, i32 noundef 5999, ptr noundef @__func__.do_serialize)
  br label %61

61:                                               ; preds = %59, %57, %55
  unreachable

62:                                               ; No predecessors!
  br label %63

63:                                               ; preds = %62
  br label %64

64:                                               ; preds = %63, %47
  %65 = load i32, ptr %8, align 4
  %66 = add i32 %65, 1
  %67 = load ptr, ptr %4, align 8
  %68 = load ptr, ptr %67, align 8
  %69 = sext i32 %66 to i64
  %70 = getelementptr inbounds i8, ptr %68, i64 %69
  store ptr %70, ptr %67, align 8
  %71 = load i32, ptr %8, align 4
  %72 = add i32 %71, 1
  %73 = sext i32 %72 to i64
  %74 = load ptr, ptr %5, align 8
  %75 = load i64, ptr %74, align 8
  %76 = sub i64 %75, %73
  store i64 %76, ptr %74, align 8
  call void @llvm.lifetime.end.p0(i64 4, ptr %8) #16
  call void @llvm.lifetime.end.p0(i64 24, ptr %7) #16
  ret void
}