; Function Attrs: nounwind uwtable
define internal void @do_serialize(ptr noundef nonnull captures(none) %0, ptr noundef nonnull captures(none) %1, ptr noundef %2, ...) unnamed_addr #0 {
  %4 = alloca [1 x %struct.__va_list_tag], align 16
  call void @llvm.lifetime.start.p0(i64 24, ptr nonnull %4) #29
  %5 = load i64, ptr %1, align 8
  %6 = icmp eq i64 %5, 0
  br i1 %6, label %7, label %10

7:                                                ; preds = %3
  %8 = tail call zeroext i1 @errstart_cold(i32 noundef 21, ptr noundef null) #31
  tail call void @llvm.assume(i1 %8)
  %9 = tail call i32 (ptr, ...) @errmsg_internal(ptr noundef nonnull @.str.139) #29
  tail call void @errfinish(ptr noundef nonnull @.str.3, i32 noundef 5985, ptr noundef nonnull @__func__.do_serialize) #29
  unreachable

10:                                               ; preds = %3
  call void @llvm.va_start.p0(ptr nonnull %4)
  %11 = load ptr, ptr %0, align 8
  %12 = load i64, ptr %1, align 8
  %13 = call i32 @pg_vsnprintf(ptr noundef %11, i64 noundef %12, ptr noundef %2, ptr noundef nonnull %4) #29
  call void @llvm.va_end.p0(ptr nonnull %4)
  %14 = icmp slt i32 %13, 0
  br i1 %14, label %15, label %18

15:                                               ; preds = %10
  %16 = call zeroext i1 @errstart_cold(i32 noundef 21, ptr noundef null) #31
  call void @llvm.assume(i1 %16)
  %17 = call i32 (ptr, ...) @errmsg_internal(ptr noundef nonnull @.str.140, ptr noundef %2) #29
  call void @errfinish(ptr noundef nonnull @.str.3, i32 noundef 5994, ptr noundef nonnull @__func__.do_serialize) #29
  unreachable

18:                                               ; preds = %10
  %19 = zext nneg i32 %13 to i64
  %20 = load i64, ptr %1, align 8
  %.not = icmp ugt i64 %20, %19
  br i1 %.not, label %24, label %21

21:                                               ; preds = %18
  %22 = call zeroext i1 @errstart_cold(i32 noundef 21, ptr noundef null) #31
  call void @llvm.assume(i1 %22)
  %23 = call i32 (ptr, ...) @errmsg_internal(ptr noundef nonnull @.str.139) #29
  call void @errfinish(ptr noundef nonnull @.str.3, i32 noundef 5999, ptr noundef nonnull @__func__.do_serialize) #29
  unreachable

24:                                               ; preds = %18
  %25 = add nuw i32 %13, 1
  %26 = load ptr, ptr %0, align 8
  %27 = sext i32 %25 to i64
  %28 = getelementptr inbounds i8, ptr %26, i64 %27
  store ptr %28, ptr %0, align 8
  %29 = load i64, ptr %1, align 8
  %30 = sub i64 %29, %27
  store i64 %30, ptr %1, align 8
  call void @llvm.lifetime.end.p0(i64 24, ptr nonnull %4) #29
  ret void
}